target datalayout = "e-m:e-p270:32:32-p271:32:32-p272:64:64-i64:64-i128:128-f80:128-n8:16:32:64-S128"
target triple = "x86_64-pc-linux-gnu"

%struct.AVFormatContext = type { ptr, ptr, ptr, ptr, ptr, i32, i32, ptr, i32, ptr, i32, ptr, ptr, i64, i64, i64, i32, i32, i32, i64, i64, ptr, i32, i32, ptr, i32, i32, i32, i32, ptr, i64, i32, i32, %struct.AVIOInterruptCB, i32, i32, i32, i32, i64, i32, i32, i32, i32, i32, i32, i32, i32, i32, i32, i32, i32, i64, i32, i32, i32, i32, i32, ptr, ptr, ptr, ptr, i32, ptr, ptr, ptr, ptr, i32, ptr, ptr, i64, ptr, ptr, ptr, i64 }
%struct.AVIOInterruptCB = type { ptr, ptr }
%struct.AVStream = type { ptr, i32, i32, ptr, ptr, %struct.AVRational, i64, i64, i64, i32, i32, %struct.AVRational, ptr, %struct.AVRational, %struct.AVPacket, i32, %struct.AVRational, i32 }
%struct.AVPacket = type { ptr, i64, i64, ptr, i32, i32, i32, ptr, i32, i64, i64, ptr, ptr, %struct.AVRational }
%struct.AVRational = type { i32, i32 }
%struct.AVCodecParameters = type { i32, i32, i32, ptr, i32, ptr, i32, i32, i64, i32, i32, i32, i32, i32, i32, %struct.AVRational, %struct.AVRational, i32, i32, i32, i32, i32, i32, i32, %struct.AVChannelLayout, i32, i32, i32, i32, i32, i32 }
%struct.AVChannelLayout = type { i32, i32, %union.anon, ptr }
%union.anon = type { i64 }
%struct.FilmstripDemuxContext = type { i32 }

; Function Attrs: alwaysinline nounwind uwtable
define internal i64 @avio_tell(ptr noundef %0) #3 {
  %2 = alloca ptr, align 8
  store ptr %0, ptr %2, align 8, !tbaa !29
  %3 = load ptr, ptr %2, align 8, !tbaa !29
  %4 = call i64 @avio_seek(ptr noundef %3, i64 noundef 0, i32 noundef 1)
  ret i64 %4
}

; Function Attrs: nounwind uwtable
define internal i32 @read_packet(ptr noundef %0, ptr noundef %1) #0 {
  %3 = alloca i32, align 4
  %4 = alloca ptr, align 8
  %5 = alloca ptr, align 8
  %6 = alloca ptr, align 8
  %7 = alloca ptr, align 8
  %8 = alloca i32, align 4
  store ptr %0, ptr %4, align 8, !tbaa !4
  store ptr %1, ptr %5, align 8, !tbaa !52
  call void @llvm.lifetime.start.p0(i64 8, ptr %6) #4
  %9 = load ptr, ptr %4, align 8, !tbaa !4
  %10 = getelementptr inbounds nuw %struct.AVFormatContext, ptr %9, i32 0, i32 3
  %11 = load ptr, ptr %10, align 8, !tbaa !9
  store ptr %11, ptr %6, align 8, !tbaa !26
  call void @llvm.lifetime.start.p0(i64 8, ptr %7) #4
  %12 = load ptr, ptr %4, align 8, !tbaa !4
  %13 = getelementptr inbounds nuw %struct.AVFormatContext, ptr %12, i32 0, i32 7
  %14 = load ptr, ptr %13, align 8, !tbaa !54
  %15 = getelementptr inbounds ptr, ptr %14, i64 0
  %16 = load ptr, ptr %15, align 8, !tbaa !32
  store ptr %16, ptr %7, align 8, !tbaa !32
  %17 = load ptr, ptr %4, align 8, !tbaa !4
  %18 = getelementptr inbounds nuw %struct.AVFormatContext, ptr %17, i32 0, i32 4
  %19 = load ptr, ptr %18, align 8, !tbaa !28
  %20 = call i32 @avio_feof(ptr noundef %19)
  %21 = icmp ne i32 %20, 0
  br i1 %21, label %22, label %23

22:                                               ; preds = %2
  store i32 -541478725, ptr %3, align 4
  store i32 1, ptr %8, align 4
  br label %97

23:                                               ; preds = %2
  %24 = load ptr, ptr %4, align 8, !tbaa !4
  %25 = getelementptr inbounds nuw %struct.AVFormatContext, ptr %24, i32 0, i32 4
  %26 = load ptr, ptr %25, align 8, !tbaa !28
  %27 = call i64 @avio_tell(ptr noundef %26)
  %28 = load ptr, ptr %7, align 8, !tbaa !32
  %29 = getelementptr inbounds nuw %struct.AVStream, ptr %28, i32 0, i32 3
  %30 = load ptr, ptr %29, align 8, !tbaa !41
  %31 = getelementptr inbounds nuw %struct.AVCodecParameters, ptr %30, i32 0, i32 13
  %32 = load i32, ptr %31, align 8, !tbaa !48
  %33 = sext i32 %32 to i64
  %34 = load ptr, ptr %7, align 8, !tbaa !32
  %35 = getelementptr inbounds nuw %struct.AVStream, ptr %34, i32 0, i32 3
  %36 = load ptr, ptr %35, align 8, !tbaa !41
  %37 = getelementptr inbounds nuw %struct.AVCodecParameters, ptr %36, i32 0, i32 14
  %38 = load i32, ptr %37, align 4, !tbaa !49
  %39 = load ptr, ptr %6, align 8, !tbaa !26
  %40 = getelementptr inbounds nuw %struct.FilmstripDemuxContext, ptr %39, i32 0, i32 0
  %41 = load i32, ptr %40, align 4, !tbaa !50
  %42 = add nsw i32 %38, %41
  %43 = sext i32 %42 to i64
  %44 = mul nsw i64 %33, %43
  %45 = mul nsw i64 %44, 4
  %46 = sdiv i64 %27, %45
  %47 = load ptr, ptr %5, align 8, !tbaa !52
  %48 = getelementptr inbounds nuw %struct.AVPacket, ptr %47, i32 0, i32 2
  store i64 %46, ptr %48, align 8, !tbaa !55
  %49 = load ptr, ptr %4, align 8, !tbaa !4
  %50 = getelementptr inbounds nuw %struct.AVFormatContext, ptr %49, i32 0, i32 4
  %51 = load ptr, ptr %50, align 8, !tbaa !28
  %52 = load ptr, ptr %5, align 8, !tbaa !52
  %53 = load ptr, ptr %7, align 8, !tbaa !32
  %54 = getelementptr inbounds nuw %struct.AVStream, ptr %53, i32 0, i32 3
  %55 = load ptr, ptr %54, align 8, !tbaa !41
  %56 = getelementptr inbounds nuw %struct.AVCodecParameters, ptr %55, i32 0, i32 13
  %57 = load i32, ptr %56, align 8, !tbaa !48
  %58 = load ptr, ptr %7, align 8, !tbaa !32
  %59 = getelementptr inbounds nuw %struct.AVStream, ptr %58, i32 0, i32 3
  %60 = load ptr, ptr %59, align 8, !tbaa !41
  %61 = getelementptr inbounds nuw %struct.AVCodecParameters, ptr %60, i32 0, i32 14
  %62 = load i32, ptr %61, align 4, !tbaa !49
  %63 = mul nsw i32 %57, %62
  %64 = mul nsw i32 %63, 4
  %65 = call i32 @av_get_packet(ptr noundef %51, ptr noundef %52, i32 noundef %64)
  %66 = load ptr, ptr %5, align 8, !tbaa !52
  %67 = getelementptr inbounds nuw %struct.AVPacket, ptr %66, i32 0, i32 4
  store i32 %65, ptr %67, align 8, !tbaa !56
  %68 = load ptr, ptr %4, align 8, !tbaa !4
  %69 = getelementptr inbounds nuw %struct.AVFormatContext, ptr %68, i32 0, i32 4
  %70 = load ptr, ptr %69, align 8, !tbaa !28
  %71 = load ptr, ptr %7, align 8, !tbaa !32
  %72 = getelementptr inbounds nuw %struct.AVStream, ptr %71, i32 0, i32 3
  %73 = load ptr, ptr %72, align 8, !tbaa !41
  %74 = getelementptr inbounds nuw %struct.AVCodecParameters, ptr %73, i32 0, i32 13
  %75 = load i32, ptr %74, align 8, !tbaa !48
  %76 = sext i32 %75 to i64
  %77 = load ptr, ptr %6, align 8, !tbaa !26
  %78 = getelementptr inbounds nuw %struct.FilmstripDemuxContext, ptr %77, i32 0, i32 0
  %79 = load i32, ptr %78, align 4, !tbaa !50
  %80 = sext i32 %79 to i64
  %81 = mul nsw i64 %76, %80
  %82 = mul nsw i64 %81, 4
  %83 = call i64 @avio_skip(ptr noundef %70, i64 noundef %82)
  %84 = load ptr, ptr %5, align 8, !tbaa !52
  %85 = getelementptr inbounds nuw %struct.AVPacket, ptr %84, i32 0, i32 4
  %86 = load i32, ptr %85, align 8, !tbaa !56
  %87 = icmp slt i32 %86, 0
  br i1 %87, label %88, label %92

88:                                               ; preds = %23
  %89 = load ptr, ptr %5, align 8, !tbaa !52
  %90 = getelementptr inbounds nuw %struct.AVPacket, ptr %89, i32 0, i32 4
  %91 = load i32, ptr %90, align 8, !tbaa !56
  store i32 %91, ptr %3, align 4
  store i32 1, ptr %8, align 4
  br label %97

92:                                               ; preds = %23
  %93 = load ptr, ptr %5, align 8, !tbaa !52
  %94 = getelementptr inbounds nuw %struct.AVPacket, ptr %93, i32 0, i32 6
  %95 = load i32, ptr %94, align 8, !tbaa !57
  %96 = or i32 %95, 1
  store i32 %96, ptr %94, align 8, !tbaa !57
  store i32 0, ptr %3, align 4
  store i32 1, ptr %8, align 4
  br label %97

97:                                               ; preds = %92, %88, %22
  call void @llvm.lifetime.end.p0(i64 8, ptr %7) #4
  call void @llvm.lifetime.end.p0(i64 8, ptr %6) #4
  %98 = load i32, ptr %3, align 4
  ret i32 %98
}