; Function Attrs: nounwind uwtable
define internal range(i32 -2147483648, 1) i32 @read_packet(ptr noundef readonly captures(none) %0, ptr noundef %1) #0 {
  %3 = getelementptr inbounds nuw i8, ptr %0, i64 24
  %4 = load ptr, ptr %3, align 8, !tbaa !4
  %5 = getelementptr inbounds nuw i8, ptr %0, i64 48
  %6 = load ptr, ptr %5, align 8, !tbaa !45
  %7 = load ptr, ptr %6, align 8, !tbaa !46
  %8 = getelementptr inbounds nuw i8, ptr %0, i64 32
  %9 = load ptr, ptr %8, align 8, !tbaa !24
  %10 = tail call i32 @avio_feof(ptr noundef %9) #3
  %.not = icmp eq i32 %10, 0
  br i1 %.not, label %11, label %49

11:                                               ; preds = %2
  %12 = load ptr, ptr %8, align 8, !tbaa !24
  %13 = tail call i64 @avio_seek(ptr noundef %12, i64 noundef 0, i32 noundef 1) #3
  %14 = getelementptr inbounds nuw i8, ptr %7, i64 16
  %15 = load ptr, ptr %14, align 8, !tbaa !34
  %16 = getelementptr inbounds nuw i8, ptr %15, i64 72
  %17 = load i32, ptr %16, align 8, !tbaa !41
  %18 = sext i32 %17 to i64
  %19 = getelementptr inbounds nuw i8, ptr %15, i64 76
  %20 = load i32, ptr %19, align 4, !tbaa !42
  %21 = load i32, ptr %4, align 4, !tbaa !43
  %22 = add nsw i32 %21, %20
  %23 = sext i32 %22 to i64
  %24 = shl nsw i64 %18, 2
  %25 = mul i64 %24, %23
  %26 = sdiv i64 %13, %25
  %27 = getelementptr inbounds nuw i8, ptr %1, i64 16
  store i64 %26, ptr %27, align 8, !tbaa !48
  %28 = load ptr, ptr %8, align 8, !tbaa !24
  %29 = shl i32 %17, 2
  %30 = mul i32 %29, %20
  %31 = tail call i32 @av_get_packet(ptr noundef %28, ptr noundef %1, i32 noundef %30) #3
  %32 = getelementptr inbounds nuw i8, ptr %1, i64 32
  store i32 %31, ptr %32, align 8, !tbaa !49
  %33 = load ptr, ptr %8, align 8, !tbaa !24
  %34 = load ptr, ptr %14, align 8, !tbaa !34
  %35 = getelementptr inbounds nuw i8, ptr %34, i64 72
  %36 = load i32, ptr %35, align 8, !tbaa !41
  %37 = sext i32 %36 to i64
  %38 = load i32, ptr %4, align 4, !tbaa !43
  %39 = sext i32 %38 to i64
  %40 = shl nsw i64 %37, 2
  %41 = mul i64 %40, %39
  %42 = tail call i64 @avio_skip(ptr noundef %33, i64 noundef %41) #3
  %43 = load i32, ptr %32, align 8, !tbaa !49
  %44 = icmp slt i32 %43, 0
  br i1 %44, label %49, label %45

45:                                               ; preds = %11
  %46 = getelementptr inbounds nuw i8, ptr %1, i64 40
  %47 = load i32, ptr %46, align 8, !tbaa !50
  %48 = or i32 %47, 1
  store i32 %48, ptr %46, align 8, !tbaa !50
  br label %49

49:                                               ; preds = %11, %2, %45
  %.0 = phi i32 [ 0, %45 ], [ -541478725, %2 ], [ %43, %11 ]
  ret i32 %.0
}